target datalayout = "e-m:e-p270:32:32-p271:32:32-p272:64:64-i64:64-i128:128-f80:128-n8:16:32:64-S128"
target triple = "x86_64-pc-linux-gnu"

%"class.OpenImageIO::v3_1_0::basic_string_view" = type { ptr, i64 }

; Function Attrs: noinline noreturn nounwind uwtable
define linkonce_odr hidden void @__clang_call_terminate(ptr noundef %0) #17 comdat {
  %2 = call ptr @__cxa_begin_catch(ptr %0) #3
  call void @_ZSt9terminatev() #28
  unreachable
}

; Function Attrs: mustprogress nounwind uwtable
define linkonce_odr hidden noundef nonnull align 1 dereferenceable(1) ptr @_ZNK11OpenImageIO6v3_1_017basic_string_viewIcSt11char_traitsIcEEixEm(ptr noundef nonnull align 8 dereferenceable(16) %0, i64 noundef %1) #6 comdat align 2 {
  %3 = alloca ptr, align 8
  %4 = alloca i64, align 8
  store ptr %0, ptr %3, align 8, !tbaa !103
  store i64 %1, ptr %4, align 8, !tbaa !108
  %5 = load ptr, ptr %3, align 8
  %6 = getelementptr inbounds nuw %"class.OpenImageIO::v3_1_0::basic_string_view", ptr %5, i32 0, i32 0
  %7 = load ptr, ptr %6, align 8, !tbaa !109
  %8 = load i64, ptr %4, align 8, !tbaa !108
  %9 = getelementptr inbounds nuw i8, ptr %7, i64 %8
  ret ptr %9
}

; Function Attrs: inlinehint mustprogress nounwind uwtable
define linkonce_odr noundef nonnull align 8 dereferenceable(8) ptr @_ZSt3minImERKT_S2_S2_(ptr noundef nonnull align 8 dereferenceable(8) %0, ptr noundef nonnull align 8 dereferenceable(8) %1) #4 comdat {
  %3 = alloca ptr, align 8
  %4 = alloca ptr, align 8
  %5 = alloca ptr, align 8
  store ptr %0, ptr %4, align 8, !tbaa !131
  store ptr %1, ptr %5, align 8, !tbaa !131
  %6 = load ptr, ptr %5, align 8, !tbaa !131
  %7 = load i64, ptr %6, align 8, !tbaa !108
  %8 = load ptr, ptr %4, align 8, !tbaa !131
  %9 = load i64, ptr %8, align 8, !tbaa !108
  %10 = icmp ult i64 %7, %9
  br i1 %10, label %11, label %13

11:                                               ; preds = %2
  %12 = load ptr, ptr %5, align 8, !tbaa !131
  store ptr %12, ptr %3, align 8
  br label %15

13:                                               ; preds = %2
  %14 = load ptr, ptr %4, align 8, !tbaa !131
  store ptr %14, ptr %3, align 8
  br label %15

15:                                               ; preds = %13, %11
  %16 = load ptr, ptr %3, align 8
  ret ptr %16
}

; Function Attrs: mustprogress nounwind uwtable
define linkonce_odr hidden noundef i64 @_ZNK11OpenImageIO6v3_1_017basic_string_viewIcSt11char_traitsIcEE4sizeEv(ptr noundef nonnull align 8 dereferenceable(16) %0) #6 comdat align 2 {
  %2 = alloca ptr, align 8
  store ptr %0, ptr %2, align 8, !tbaa !103
  %3 = load ptr, ptr %2, align 8
  %4 = getelementptr inbounds nuw %"class.OpenImageIO::v3_1_0::basic_string_view", ptr %3, i32 0, i32 1
  %5 = load i64, ptr %4, align 8, !tbaa !105
  ret i64 %5
}

; Function Attrs: mustprogress nounwind uwtable
define noundef ptr @_ZN11OpenImageIO6v3_1_07Strutil11safe_strcpyEPcNS0_17basic_string_viewIcSt11char_traitsIcEEEm(ptr noundef %0, ptr noundef %1, i64 noundef %2) #6 personality ptr @__gxx_personality_v0 {
  %4 = alloca ptr, align 8
  %5 = alloca ptr, align 8
  %6 = alloca i64, align 8
  %7 = alloca i64, align 8
  %8 = alloca i64, align 8
  %9 = alloca i64, align 8
  %10 = alloca i64, align 8
  %11 = alloca i64, align 8
  %12 = alloca i64, align 8
  store ptr %0, ptr %4, align 8, !tbaa !10
  store ptr %1, ptr %5, align 8, !tbaa !103
  store i64 %2, ptr %6, align 8, !tbaa !108
  %13 = call noundef i64 @_ZNK11OpenImageIO6v3_1_017basic_string_viewIcSt11char_traitsIcEE4sizeEv(ptr noundef nonnull align 8 dereferenceable(16) %1) #3
  %14 = icmp ne i64 %13, 0
  br i1 %14, label %15, label %53

15:                                               ; preds = %3
  call void @llvm.lifetime.start.p0(i64 8, ptr %7) #3
  call void @llvm.lifetime.start.p0(i64 8, ptr %8) #3
  %16 = load i64, ptr %6, align 8, !tbaa !108
  %17 = sub i64 %16, 1
  store i64 %17, ptr %8, align 8, !tbaa !108
  call void @llvm.lifetime.start.p0(i64 8, ptr %9) #3
  %18 = call noundef i64 @_ZNK11OpenImageIO6v3_1_017basic_string_viewIcSt11char_traitsIcEE4sizeEv(ptr noundef nonnull align 8 dereferenceable(16) %1) #3
  store i64 %18, ptr %9, align 8, !tbaa !108
  %19 = invoke noundef nonnull align 8 dereferenceable(8) ptr @_ZSt3minImERKT_S2_S2_(ptr noundef nonnull align 8 dereferenceable(8) %8, ptr noundef nonnull align 8 dereferenceable(8) %9)
          to label %20 unwind label %69

20:                                               ; preds = %15
  %21 = load i64, ptr %19, align 8, !tbaa !108
  call void @llvm.lifetime.end.p0(i64 8, ptr %9) #3
  call void @llvm.lifetime.end.p0(i64 8, ptr %8) #3
  store i64 %21, ptr %7, align 8, !tbaa !108
  call void @llvm.lifetime.start.p0(i64 8, ptr %10) #3
  store i64 0, ptr %10, align 8, !tbaa !108
  br label %22

22:                                               ; preds = %35, %20
  %23 = load i64, ptr %10, align 8, !tbaa !108
  %24 = load i64, ptr %7, align 8, !tbaa !108
  %25 = icmp ult i64 %23, %24
  br i1 %25, label %27, label %26

26:                                               ; preds = %22
  call void @llvm.lifetime.end.p0(i64 8, ptr %10) #3
  br label %38

27:                                               ; preds = %22
  %28 = load i64, ptr %10, align 8, !tbaa !108
  %29 = invoke noundef nonnull align 1 dereferenceable(1) ptr @_ZNK11OpenImageIO6v3_1_017basic_string_viewIcSt11char_traitsIcEEixEm(ptr noundef nonnull align 8 dereferenceable(16) %1, i64 noundef %28)
          to label %30 unwind label %69

30:                                               ; preds = %27
  %31 = load i8, ptr %29, align 1, !tbaa !8
  %32 = load ptr, ptr %4, align 8, !tbaa !10
  %33 = load i64, ptr %10, align 8, !tbaa !108
  %34 = getelementptr inbounds nuw i8, ptr %32, i64 %33
  store i8 %31, ptr %34, align 1, !tbaa !8
  br label %35

35:                                               ; preds = %30
  %36 = load i64, ptr %10, align 8, !tbaa !108
  %37 = add i64 %36, 1
  store i64 %37, ptr %10, align 8, !tbaa !108
  br label %22, !llvm.loop !242

38:                                               ; preds = %26
  call void @llvm.lifetime.start.p0(i64 8, ptr %11) #3
  %39 = load i64, ptr %7, align 8, !tbaa !108
  store i64 %39, ptr %11, align 8, !tbaa !108
  br label %40

40:                                               ; preds = %49, %38
  %41 = load i64, ptr %11, align 8, !tbaa !108
  %42 = load i64, ptr %6, align 8, !tbaa !108
  %43 = icmp ult i64 %41, %42
  br i1 %43, label %45, label %44

44:                                               ; preds = %40
  call void @llvm.lifetime.end.p0(i64 8, ptr %11) #3
  br label %52

45:                                               ; preds = %40
  %46 = load ptr, ptr %4, align 8, !tbaa !10
  %47 = load i64, ptr %11, align 8, !tbaa !108
  %48 = getelementptr inbounds nuw i8, ptr %46, i64 %47
  store i8 0, ptr %48, align 1, !tbaa !8
  br label %49

49:                                               ; preds = %45
  %50 = load i64, ptr %11, align 8, !tbaa !108
  %51 = add i64 %50, 1
  store i64 %51, ptr %11, align 8, !tbaa !108
  br label %40, !llvm.loop !243

52:                                               ; preds = %44
  call void @llvm.lifetime.end.p0(i64 8, ptr %7) #3
  br label %67

53:                                               ; preds = %3
  call void @llvm.lifetime.start.p0(i64 8, ptr %12) #3
  store i64 0, ptr %12, align 8, !tbaa !108
  br label %54

54:                                               ; preds = %63, %53
  %55 = load i64, ptr %12, align 8, !tbaa !108
  %56 = load i64, ptr %6, align 8, !tbaa !108
  %57 = icmp ult i64 %55, %56
  br i1 %57, label %59, label %58

58:                                               ; preds = %54
  call void @llvm.lifetime.end.p0(i64 8, ptr %12) #3
  br label %66

59:                                               ; preds = %54
  %60 = load ptr, ptr %4, align 8, !tbaa !10
  %61 = load i64, ptr %12, align 8, !tbaa !108
  %62 = getelementptr inbounds nuw i8, ptr %60, i64 %61
  store i8 0, ptr %62, align 1, !tbaa !8
  br label %63

63:                                               ; preds = %59
  %64 = load i64, ptr %12, align 8, !tbaa !108
  %65 = add i64 %64, 1
  store i64 %65, ptr %12, align 8, !tbaa !108
  br label %54, !llvm.loop !244

66:                                               ; preds = %58
  br label %67

67:                                               ; preds = %66, %52
  %68 = load ptr, ptr %4, align 8, !tbaa !10
  ret ptr %68

69:                                               ; preds = %27, %15
  %70 = landingpad { ptr, i32 }
          catch ptr null
  %71 = extractvalue { ptr, i32 } %70, 0
  call void @__clang_call_terminate(ptr %71) #28
  unreachable
}