; Function Attrs: mustprogress nofree norecurse nosync nounwind memory(read, argmem: readwrite, inaccessiblemem: none) uwtable
define noundef ptr @_ZN11OpenImageIO6v3_1_07Strutil11safe_strcpyEPcNS0_17basic_string_viewIcSt11char_traitsIcEEEm(ptr noundef returned writeonly %0, ptr noundef readonly captures(none) %1, i64 noundef %2) local_unnamed_addr #14 personality ptr @__gxx_personality_v0 {
  %4 = getelementptr inbounds nuw i8, ptr %1, i64 8
  %5 = load i64, ptr %4, align 8, !tbaa !64
  %.not = icmp eq i64 %5, 0
  br i1 %.not, label %.preheader, label %6

.preheader:                                       ; preds = %3
  %.not32 = icmp eq i64 %2, 0
  br i1 %.not32, label %.loopexit, label %.lr.ph30.preheader

.lr.ph30.preheader:                               ; preds = %.preheader
  tail call void @llvm.memset.p0.i64(ptr align 1 %0, i8 0, i64 %2, i1 false), !tbaa !3
  br label %.loopexit

6:                                                ; preds = %3
  %7 = add i64 %2, -1
  %.sroa.speculated = tail call i64 @llvm.umin.i64(i64 %5, i64 %7)
  %.not31 = icmp eq i64 %7, 0
  br i1 %.not31, label %.preheader24, label %.lr.ph.preheader

.lr.ph.preheader:                                 ; preds = %6
  %umax = tail call i64 @llvm.umax.i64(i64 %.sroa.speculated, i64 1)
  br label %.lr.ph

.preheader24:                                     ; preds = %.lr.ph, %6
  %8 = icmp ult i64 %.sroa.speculated, %2
  br i1 %8, label %.lr.ph28.preheader, label %.loopexit

.lr.ph28.preheader:                               ; preds = %.preheader24
  %scevgep = getelementptr i8, ptr %0, i64 %.sroa.speculated
  %9 = sub nuw i64 %2, %.sroa.speculated
  tail call void @llvm.memset.p0.i64(ptr align 1 %scevgep, i8 0, i64 %9, i1 false), !tbaa !3
  br label %.loopexit

.lr.ph:                                           ; preds = %.lr.ph.preheader, %.lr.ph
  %.01926 = phi i64 [ %14, %.lr.ph ], [ 0, %.lr.ph.preheader ]
  %10 = load ptr, ptr %1, align 8, !tbaa !67
  %11 = getelementptr inbounds nuw i8, ptr %10, i64 %.01926
  %12 = load i8, ptr %11, align 1, !tbaa !3
  %13 = getelementptr inbounds nuw i8, ptr %0, i64 %.01926
  store i8 %12, ptr %13, align 1, !tbaa !3
  %14 = add nuw i64 %.01926, 1
  %exitcond.not = icmp eq i64 %14, %umax
  br i1 %exitcond.not, label %.preheader24, label %.lr.ph, !llvm.loop !349

.loopexit:                                        ; preds = %.lr.ph28.preheader, %.lr.ph30.preheader, %.preheader24, %.preheader
  ret ptr %0
}